target datalayout = "e-m:e-p270:32:32-p271:32:32-p272:64:64-i64:64-i128:128-f80:128-n8:16:32:64-S128"
target triple = "x86_64-unknown-linux-gnu"

%struct.grpc_transport_one_way_stats = type { i64, i64, i64 }
%struct.grpc_slice = type { ptr, %"union.grpc_slice::grpc_slice_data" }
%"union.grpc_slice::grpc_slice_data" = type { %"struct.grpc_slice::grpc_slice_data::grpc_slice_refcounted", [8 x i8] }
%"struct.grpc_slice::grpc_slice_data::grpc_slice_refcounted" = type { i64, ptr }
%"struct.grpc_slice::grpc_slice_data::grpc_slice_inlined" = type { i8, [23 x i8] }

@.str.1 = private unnamed_addr constant [141 x i8] c"generated/home/dtcxzyw/WorkSpace/Projects/compilers/llvm-opt-benchmark/bench/grpc/grpc/src/core/ext/transport/chttp2/transport/frame_data.cc\00", align 1
@.str.2 = private unnamed_addr constant [24 x i8] c"write_bytes < (1 << 24)\00", align 1

; Function Attrs: mustprogress uwtable
define linkonce_odr noundef zeroext i1 @_ZN9grpc_core22IsHttp2StatsFixEnabledEv() #4 comdat {
entry:
  %call = call noundef zeroext i1 @_ZN9grpc_core19IsExperimentEnabledEm(i64 noundef 8)
  ret i1 %call
}

; Function Attrs: mustprogress uwtable
define void @_Z23grpc_chttp2_encode_datajP17grpc_slice_bufferjiP28grpc_transport_one_way_statsS0_(i32 noundef %id, ptr noundef %inbuf, i32 noundef %write_bytes, i32 noundef %is_eof, ptr noundef %stats, ptr noundef %outbuf) #4 {
entry:
  %id.addr = alloca i32, align 4
  %inbuf.addr = alloca ptr, align 8
  %write_bytes.addr = alloca i32, align 4
  %is_eof.addr = alloca i32, align 4
  %stats.addr = alloca ptr, align 8
  %outbuf.addr = alloca ptr, align 8
  %hdr = alloca %struct.grpc_slice, align 8
  %p = alloca ptr, align 8
  %ref.tmp = alloca %struct.grpc_slice, align 8
  %agg.tmp = alloca %struct.grpc_slice, align 8
  store i32 %id, ptr %id.addr, align 4
  store ptr %inbuf, ptr %inbuf.addr, align 8
  store i32 %write_bytes, ptr %write_bytes.addr, align 4
  store i32 %is_eof, ptr %is_eof.addr, align 4
  store ptr %stats, ptr %stats.addr, align 8
  store ptr %outbuf, ptr %outbuf.addr, align 8
  call void @grpc_slice_malloc(ptr sret(%struct.grpc_slice) align 8 %ref.tmp, i64 noundef 9)
  call void @llvm.memcpy.p0.p0.i64(ptr align 8 %hdr, ptr align 8 %ref.tmp, i64 32, i1 false)
  %refcount = getelementptr inbounds %struct.grpc_slice, ptr %hdr, i32 0, i32 0
  %0 = load ptr, ptr %refcount, align 8
  %tobool = icmp ne ptr %0, null
  br i1 %tobool, label %cond.true, label %cond.false

cond.true:                                        ; preds = %entry
  %data = getelementptr inbounds %struct.grpc_slice, ptr %hdr, i32 0, i32 1
  %bytes = getelementptr inbounds %"struct.grpc_slice::grpc_slice_data::grpc_slice_refcounted", ptr %data, i32 0, i32 1
  %1 = load ptr, ptr %bytes, align 8
  br label %cond.end

cond.false:                                       ; preds = %entry
  %data1 = getelementptr inbounds %struct.grpc_slice, ptr %hdr, i32 0, i32 1
  %bytes2 = getelementptr inbounds %"struct.grpc_slice::grpc_slice_data::grpc_slice_inlined", ptr %data1, i32 0, i32 1
  %arraydecay = getelementptr inbounds [23 x i8], ptr %bytes2, i64 0, i64 0
  br label %cond.end

cond.end:                                         ; preds = %cond.false, %cond.true
  %cond = phi ptr [ %1, %cond.true ], [ %arraydecay, %cond.false ]
  store ptr %cond, ptr %p, align 8
  br label %do.body

do.body:                                          ; preds = %cond.end
  %2 = load i32, ptr %write_bytes.addr, align 4
  %cmp = icmp ult i32 %2, 16777216
  %lnot = xor i1 %cmp, true
  br i1 %lnot, label %if.then, label %if.end

if.then:                                          ; preds = %do.body
  call void @gpr_assertion_failed(ptr noundef @.str.1, i32 noundef 66, ptr noundef @.str.2) #11
  unreachable

if.end:                                           ; preds = %do.body
  br label %do.end

do.end:                                           ; preds = %if.end
  %3 = load i32, ptr %write_bytes.addr, align 4
  %shr = lshr i32 %3, 16
  %conv = trunc i32 %shr to i8
  %4 = load ptr, ptr %p, align 8
  %incdec.ptr = getelementptr inbounds i8, ptr %4, i32 1
  store ptr %incdec.ptr, ptr %p, align 8
  store i8 %conv, ptr %4, align 1
  %5 = load i32, ptr %write_bytes.addr, align 4
  %shr3 = lshr i32 %5, 8
  %conv4 = trunc i32 %shr3 to i8
  %6 = load ptr, ptr %p, align 8
  %incdec.ptr5 = getelementptr inbounds i8, ptr %6, i32 1
  store ptr %incdec.ptr5, ptr %p, align 8
  store i8 %conv4, ptr %6, align 1
  %7 = load i32, ptr %write_bytes.addr, align 4
  %conv6 = trunc i32 %7 to i8
  %8 = load ptr, ptr %p, align 8
  %incdec.ptr7 = getelementptr inbounds i8, ptr %8, i32 1
  store ptr %incdec.ptr7, ptr %p, align 8
  store i8 %conv6, ptr %8, align 1
  %9 = load ptr, ptr %p, align 8
  %incdec.ptr8 = getelementptr inbounds i8, ptr %9, i32 1
  store ptr %incdec.ptr8, ptr %p, align 8
  store i8 0, ptr %9, align 1
  %10 = load i32, ptr %is_eof.addr, align 4
  %tobool9 = icmp ne i32 %10, 0
  %cond10 = select i1 %tobool9, i32 1, i32 0
  %conv11 = trunc i32 %cond10 to i8
  %11 = load ptr, ptr %p, align 8
  %incdec.ptr12 = getelementptr inbounds i8, ptr %11, i32 1
  store ptr %incdec.ptr12, ptr %p, align 8
  store i8 %conv11, ptr %11, align 1
  %12 = load i32, ptr %id.addr, align 4
  %shr13 = lshr i32 %12, 24
  %conv14 = trunc i32 %shr13 to i8
  %13 = load ptr, ptr %p, align 8
  %incdec.ptr15 = getelementptr inbounds i8, ptr %13, i32 1
  store ptr %incdec.ptr15, ptr %p, align 8
  store i8 %conv14, ptr %13, align 1
  %14 = load i32, ptr %id.addr, align 4
  %shr16 = lshr i32 %14, 16
  %conv17 = trunc i32 %shr16 to i8
  %15 = load ptr, ptr %p, align 8
  %incdec.ptr18 = getelementptr inbounds i8, ptr %15, i32 1
  store ptr %incdec.ptr18, ptr %p, align 8
  store i8 %conv17, ptr %15, align 1
  %16 = load i32, ptr %id.addr, align 4
  %shr19 = lshr i32 %16, 8
  %conv20 = trunc i32 %shr19 to i8
  %17 = load ptr, ptr %p, align 8
  %incdec.ptr21 = getelementptr inbounds i8, ptr %17, i32 1
  store ptr %incdec.ptr21, ptr %p, align 8
  store i8 %conv20, ptr %17, align 1
  %18 = load i32, ptr %id.addr, align 4
  %conv22 = trunc i32 %18 to i8
  %19 = load ptr, ptr %p, align 8
  %incdec.ptr23 = getelementptr inbounds i8, ptr %19, i32 1
  store ptr %incdec.ptr23, ptr %p, align 8
  store i8 %conv22, ptr %19, align 1
  %20 = load ptr, ptr %outbuf.addr, align 8
  call void @llvm.memcpy.p0.p0.i64(ptr align 8 %agg.tmp, ptr align 8 %hdr, i64 32, i1 false)
  call void @grpc_slice_buffer_add(ptr noundef %20, ptr noundef byval(%struct.grpc_slice) align 8 %agg.tmp)
  %21 = load ptr, ptr %inbuf.addr, align 8
  %22 = load i32, ptr %write_bytes.addr, align 4
  %conv24 = zext i32 %22 to i64
  %23 = load ptr, ptr %outbuf.addr, align 8
  call void @grpc_slice_buffer_move_first_no_ref(ptr noundef %21, i64 noundef %conv24, ptr noundef %23)
  %24 = load ptr, ptr %stats.addr, align 8
  %framing_bytes = getelementptr inbounds %struct.grpc_transport_one_way_stats, ptr %24, i32 0, i32 0
  %25 = load i64, ptr %framing_bytes, align 8
  %add = add i64 %25, 9
  store i64 %add, ptr %framing_bytes, align 8
  %call = call noundef zeroext i1 @_ZN9grpc_core22IsHttp2StatsFixEnabledEv()
  br i1 %call, label %if.end28, label %if.then25

if.then25:                                        ; preds = %do.end
  %26 = load i32, ptr %write_bytes.addr, align 4
  %conv26 = zext i32 %26 to i64
  %27 = load ptr, ptr %stats.addr, align 8
  %data_bytes = getelementptr inbounds %struct.grpc_transport_one_way_stats, ptr %27, i32 0, i32 1
  %28 = load i64, ptr %data_bytes, align 8
  %add27 = add i64 %28, %conv26
  store i64 %add27, ptr %data_bytes, align 8
  br label %if.end28

if.end28:                                         ; preds = %if.then25, %do.end
  ret void
}