; Function Attrs: mustprogress uwtable
define void @_Z23grpc_chttp2_encode_datajP17grpc_slice_bufferjiP28grpc_transport_one_way_statsS0_(i32 noundef %id, ptr noundef %inbuf, i32 noundef %write_bytes, i32 noundef %is_eof, ptr nocapture noundef %stats, ptr noundef %outbuf) local_unnamed_addr #3 {
entry:
  %ref.tmp = alloca %struct.grpc_slice, align 8
  %agg.tmp = alloca %struct.grpc_slice, align 8
  call void @grpc_slice_malloc(ptr nonnull sret(%struct.grpc_slice) align 8 %ref.tmp, i64 noundef 9)
  %hdr.sroa.0.0.copyload = load ptr, ptr %ref.tmp, align 8
  %hdr.sroa.3.0.ref.tmp.sroa_idx = getelementptr inbounds i8, ptr %ref.tmp, i64 8
  %hdr.sroa.3.0.copyload = load i8, ptr %hdr.sroa.3.0.ref.tmp.sroa_idx, align 8
  %hdr.sroa.342.0.ref.tmp.sroa_idx = getelementptr inbounds i8, ptr %ref.tmp, i64 9
  %hdr.sroa.342.0.copyload = load i8, ptr %hdr.sroa.342.0.ref.tmp.sroa_idx, align 1
  %hdr.sroa.4.0.ref.tmp.sroa_idx = getelementptr inbounds i8, ptr %ref.tmp, i64 10
  %hdr.sroa.4.0.copyload = load i8, ptr %hdr.sroa.4.0.ref.tmp.sroa_idx, align 2
  %hdr.sroa.5.0.ref.tmp.sroa_idx = getelementptr inbounds i8, ptr %ref.tmp, i64 11
  %hdr.sroa.5.0.copyload = load i8, ptr %hdr.sroa.5.0.ref.tmp.sroa_idx, align 1
  %hdr.sroa.6.0.ref.tmp.sroa_idx = getelementptr inbounds i8, ptr %ref.tmp, i64 12
  %hdr.sroa.6.0.copyload = load i8, ptr %hdr.sroa.6.0.ref.tmp.sroa_idx, align 4
  %hdr.sroa.7.0.ref.tmp.sroa_idx = getelementptr inbounds i8, ptr %ref.tmp, i64 13
  %hdr.sroa.7.0.copyload = load i8, ptr %hdr.sroa.7.0.ref.tmp.sroa_idx, align 1
  %hdr.sroa.8.0.ref.tmp.sroa_idx = getelementptr inbounds i8, ptr %ref.tmp, i64 14
  %hdr.sroa.8.0.copyload = load i8, ptr %hdr.sroa.8.0.ref.tmp.sroa_idx, align 2
  %hdr.sroa.9.0.ref.tmp.sroa_idx = getelementptr inbounds i8, ptr %ref.tmp, i64 15
  %hdr.sroa.9.0.copyload = load i8, ptr %hdr.sroa.9.0.ref.tmp.sroa_idx, align 1
  %hdr.sroa.10.0.ref.tmp.sroa_idx = getelementptr inbounds i8, ptr %ref.tmp, i64 16
  %hdr.sroa.10.0.copyload = load ptr, ptr %hdr.sroa.10.0.ref.tmp.sroa_idx, align 8
  %hdr.sroa.13.0.ref.tmp.sroa_idx = getelementptr inbounds i8, ptr %ref.tmp, i64 24
  %hdr.sroa.13.0.copyload = load i64, ptr %hdr.sroa.13.0.ref.tmp.sroa_idx, align 8
  %cmp = icmp ugt i32 %write_bytes, 16777215
  br i1 %cmp, label %if.then, label %do.end

if.then:                                          ; preds = %entry
  call void @gpr_assertion_failed(ptr noundef nonnull @.str.1, i32 noundef 66, ptr noundef nonnull @.str.2) #14
  unreachable

do.end:                                           ; preds = %entry
  %tobool.not = icmp eq ptr %hdr.sroa.0.0.copyload, null
  %shr = lshr i32 %write_bytes, 16
  %conv = trunc i32 %shr to i8
  br i1 %tobool.not, label %do.end.then, label %do.end.else

do.end.then:                                      ; preds = %do.end
  %shr377 = lshr i32 %write_bytes, 8
  %conv478 = trunc i32 %shr377 to i8
  %conv688 = trunc i32 %write_bytes to i8
  %tobool9.not115 = icmp ne i32 %is_eof, 0
  %conv11116 = zext i1 %tobool9.not115 to i8
  %shr13135 = lshr i32 %id, 24
  %conv14136 = trunc i32 %shr13135 to i8
  %shr16158 = lshr i32 %id, 16
  %conv17159 = trunc i32 %shr16158 to i8
  %0 = ptrtoint ptr %hdr.sroa.10.0.copyload to i64
  %hdr.sroa.10.0.insert.mask = and i64 %0, -65536
  %trunc = trunc i32 %id to i16
  %rev = call i16 @llvm.bswap.i16(i16 %trunc)
  %hdr.sroa.10.0.insert.insert = zext i16 %rev to i64
  %hdr.sroa.10.1.insert.insert = or disjoint i64 %hdr.sroa.10.0.insert.mask, %hdr.sroa.10.0.insert.insert
  %1 = inttoptr i64 %hdr.sroa.10.1.insert.insert to ptr
  br label %do.end.cont

do.end.else:                                      ; preds = %do.end
  %.sroa.gep = getelementptr inbounds i8, ptr %hdr.sroa.10.0.copyload, i64 1
  store i8 %conv, ptr %hdr.sroa.10.0.copyload, align 1
  %shr3 = lshr i32 %write_bytes, 8
  %conv4 = trunc i32 %shr3 to i8
  %.sroa.gep20 = getelementptr inbounds i8, ptr %hdr.sroa.10.0.copyload, i64 2
  store i8 %conv4, ptr %.sroa.gep, align 1
  %conv6 = trunc i32 %write_bytes to i8
  %.sroa.gep23 = getelementptr inbounds i8, ptr %hdr.sroa.10.0.copyload, i64 3
  store i8 %conv6, ptr %.sroa.gep20, align 1
  %.sroa.gep26 = getelementptr inbounds i8, ptr %hdr.sroa.10.0.copyload, i64 4
  store i8 0, ptr %.sroa.gep23, align 1
  %tobool9.not = icmp ne i32 %is_eof, 0
  %conv11 = zext i1 %tobool9.not to i8
  %.sroa.gep29 = getelementptr inbounds i8, ptr %hdr.sroa.10.0.copyload, i64 5
  store i8 %conv11, ptr %.sroa.gep26, align 1
  %shr13 = lshr i32 %id, 24
  %conv14 = trunc i32 %shr13 to i8
  %.sroa.gep32 = getelementptr inbounds i8, ptr %hdr.sroa.10.0.copyload, i64 6
  store i8 %conv14, ptr %.sroa.gep29, align 1
  %shr16 = lshr i32 %id, 16
  %conv17 = trunc i32 %shr16 to i8
  %.sroa.gep35 = getelementptr inbounds i8, ptr %hdr.sroa.10.0.copyload, i64 7
  store i8 %conv17, ptr %.sroa.gep32, align 1
  %shr19 = lshr i32 %id, 8
  %conv20 = trunc i32 %shr19 to i8
  %.sroa.gep38 = getelementptr inbounds i8, ptr %hdr.sroa.10.0.copyload, i64 8
  store i8 %conv20, ptr %.sroa.gep35, align 1
  %conv22 = trunc i32 %id to i8
  store i8 %conv22, ptr %.sroa.gep38, align 1
  br label %do.end.cont

do.end.cont:                                      ; preds = %do.end.else, %do.end.then
  %hdr.sroa.8.0171187226 = phi i8 [ %conv14136, %do.end.then ], [ %hdr.sroa.8.0.copyload, %do.end.else ]
  %hdr.sroa.6.0124138169189224 = phi i8 [ 0, %do.end.then ], [ %hdr.sroa.6.0.copyload, %do.end.else ]
  %hdr.sroa.4.092102122140167191222 = phi i8 [ %conv478, %do.end.then ], [ %hdr.sroa.4.0.copyload, %do.end.else ]
  %hdr.sroa.342.08090104120142165193220 = phi i8 [ %conv, %do.end.then ], [ %hdr.sroa.342.0.copyload, %do.end.else ]
  %hdr.sroa.5.0106118144163195218 = phi i8 [ %conv688, %do.end.then ], [ %hdr.sroa.5.0.copyload, %do.end.else ]
  %hdr.sroa.7.0146161197216 = phi i8 [ %conv11116, %do.end.then ], [ %hdr.sroa.7.0.copyload, %do.end.else ]
  %hdr.sroa.9.0199214 = phi i8 [ %conv17159, %do.end.then ], [ %hdr.sroa.9.0.copyload, %do.end.else ]
  %hdr.sroa.10.1 = phi ptr [ %1, %do.end.then ], [ %hdr.sroa.10.0.copyload, %do.end.else ]
  store ptr %hdr.sroa.0.0.copyload, ptr %agg.tmp, align 8
  %hdr.sroa.3.0.agg.tmp.sroa_idx = getelementptr inbounds i8, ptr %agg.tmp, i64 8
  store i8 %hdr.sroa.3.0.copyload, ptr %hdr.sroa.3.0.agg.tmp.sroa_idx, align 8
  %hdr.sroa.342.0.agg.tmp.sroa_idx = getelementptr inbounds i8, ptr %agg.tmp, i64 9
  store i8 %hdr.sroa.342.08090104120142165193220, ptr %hdr.sroa.342.0.agg.tmp.sroa_idx, align 1
  %hdr.sroa.4.0.agg.tmp.sroa_idx = getelementptr inbounds i8, ptr %agg.tmp, i64 10
  store i8 %hdr.sroa.4.092102122140167191222, ptr %hdr.sroa.4.0.agg.tmp.sroa_idx, align 2
  %hdr.sroa.5.0.agg.tmp.sroa_idx = getelementptr inbounds i8, ptr %agg.tmp, i64 11
  store i8 %hdr.sroa.5.0106118144163195218, ptr %hdr.sroa.5.0.agg.tmp.sroa_idx, align 1
  %hdr.sroa.6.0.agg.tmp.sroa_idx = getelementptr inbounds i8, ptr %agg.tmp, i64 12
  store i8 %hdr.sroa.6.0124138169189224, ptr %hdr.sroa.6.0.agg.tmp.sroa_idx, align 4
  %hdr.sroa.7.0.agg.tmp.sroa_idx = getelementptr inbounds i8, ptr %agg.tmp, i64 13
  store i8 %hdr.sroa.7.0146161197216, ptr %hdr.sroa.7.0.agg.tmp.sroa_idx, align 1
  %hdr.sroa.8.0.agg.tmp.sroa_idx = getelementptr inbounds i8, ptr %agg.tmp, i64 14
  store i8 %hdr.sroa.8.0171187226, ptr %hdr.sroa.8.0.agg.tmp.sroa_idx, align 2
  %hdr.sroa.9.0.agg.tmp.sroa_idx = getelementptr inbounds i8, ptr %agg.tmp, i64 15
  store i8 %hdr.sroa.9.0199214, ptr %hdr.sroa.9.0.agg.tmp.sroa_idx, align 1
  %hdr.sroa.10.0.agg.tmp.sroa_idx = getelementptr inbounds i8, ptr %agg.tmp, i64 16
  store ptr %hdr.sroa.10.1, ptr %hdr.sroa.10.0.agg.tmp.sroa_idx, align 8
  %hdr.sroa.13.0.agg.tmp.sroa_idx = getelementptr inbounds i8, ptr %agg.tmp, i64 24
  store i64 %hdr.sroa.13.0.copyload, ptr %hdr.sroa.13.0.agg.tmp.sroa_idx, align 8
  call void @grpc_slice_buffer_add(ptr noundef %outbuf, ptr noundef nonnull byval(%struct.grpc_slice) align 8 %agg.tmp)
  %conv24 = zext nneg i32 %write_bytes to i64
  call void @grpc_slice_buffer_move_first_no_ref(ptr noundef %inbuf, i64 noundef %conv24, ptr noundef %outbuf)
  %2 = load i64, ptr %stats, align 8
  %add = add i64 %2, 9
  store i64 %add, ptr %stats, align 8
  %call.i = call noundef zeroext i1 @_ZN9grpc_core19IsExperimentEnabledEm(i64 noundef 8)
  br i1 %call.i, label %if.end28, label %if.then25

if.then25:                                        ; preds = %do.end.cont
  %data_bytes = getelementptr inbounds i8, ptr %stats, i64 8
  %3 = load i64, ptr %data_bytes, align 8
  %add27 = add i64 %3, %conv24
  store i64 %add27, ptr %data_bytes, align 8
  br label %if.end28

if.end28:                                         ; preds = %if.then25, %do.end.cont
  ret void
}